target datalayout = "e-m:e-p270:32:32-p271:32:32-p272:64:64-i64:64-i128:128-f80:128-n8:16:32:64-S128"
target triple = "x86_64-pc-linux-gnu"

%struct.TestSpec = type { ptr, i32, ptr, ptr, i32, ptr, i32 }
%struct.Session = type { ptr, ptr, ptr, ptr, i32 }
%struct.Step = type { ptr, ptr, i32, i8 }
%struct.PermutationStep = type { ptr, ptr, i32, ptr }

; Function Attrs: nounwind uwtable
define internal void @run_all_permutations_recurse(ptr noundef %0, ptr noundef %1, i32 noundef %2, ptr noundef %3) #0 {
  %5 = alloca ptr, align 8
  %6 = alloca ptr, align 8
  %7 = alloca i32, align 4
  %8 = alloca ptr, align 8
  %9 = alloca i32, align 4
  %10 = alloca i8, align 1
  %11 = alloca ptr, align 8
  store ptr %0, ptr %5, align 8
  store ptr %1, ptr %6, align 8
  store i32 %2, ptr %7, align 4
  store ptr %3, ptr %8, align 8
  call void @llvm.lifetime.start.p0(i64 4, ptr %9) #11
  call void @llvm.lifetime.start.p0(i64 1, ptr %10) #11
  store i8 0, ptr %10, align 1
  store i32 0, ptr %9, align 4
  br label %12

12:                                               ; preds = %86, %4
  %13 = load i32, ptr %9, align 4
  %14 = load ptr, ptr %5, align 8
  %15 = getelementptr inbounds nuw %struct.TestSpec, ptr %14, i32 0, i32 4
  %16 = load i32, ptr %15, align 8
  %17 = icmp slt i32 %13, %16
  br i1 %17, label %18, label %89

18:                                               ; preds = %12
  %19 = load ptr, ptr %6, align 8
  %20 = load i32, ptr %9, align 4
  %21 = sext i32 %20 to i64
  %22 = getelementptr inbounds i32, ptr %19, i64 %21
  %23 = load i32, ptr %22, align 4
  %24 = load ptr, ptr %5, align 8
  %25 = getelementptr inbounds nuw %struct.TestSpec, ptr %24, i32 0, i32 3
  %26 = load ptr, ptr %25, align 8
  %27 = load i32, ptr %9, align 4
  %28 = sext i32 %27 to i64
  %29 = getelementptr inbounds ptr, ptr %26, i64 %28
  %30 = load ptr, ptr %29, align 8
  %31 = getelementptr inbounds nuw %struct.Session, ptr %30, i32 0, i32 4
  %32 = load i32, ptr %31, align 8
  %33 = icmp slt i32 %23, %32
  br i1 %33, label %34, label %85

34:                                               ; preds = %18
  call void @llvm.lifetime.start.p0(i64 8, ptr %11) #11
  %35 = load ptr, ptr %5, align 8
  %36 = getelementptr inbounds nuw %struct.TestSpec, ptr %35, i32 0, i32 3
  %37 = load ptr, ptr %36, align 8
  %38 = load i32, ptr %9, align 4
  %39 = sext i32 %38 to i64
  %40 = getelementptr inbounds ptr, ptr %37, i64 %39
  %41 = load ptr, ptr %40, align 8
  %42 = getelementptr inbounds nuw %struct.Session, ptr %41, i32 0, i32 3
  %43 = load ptr, ptr %42, align 8
  %44 = load ptr, ptr %6, align 8
  %45 = load i32, ptr %9, align 4
  %46 = sext i32 %45 to i64
  %47 = getelementptr inbounds i32, ptr %44, i64 %46
  %48 = load i32, ptr %47, align 4
  %49 = sext i32 %48 to i64
  %50 = getelementptr inbounds ptr, ptr %43, i64 %49
  %51 = load ptr, ptr %50, align 8
  store ptr %51, ptr %11, align 8
  %52 = load ptr, ptr %11, align 8
  %53 = getelementptr inbounds nuw %struct.Step, ptr %52, i32 0, i32 0
  %54 = load ptr, ptr %53, align 8
  %55 = load ptr, ptr %8, align 8
  %56 = load i32, ptr %7, align 4
  %57 = sext i32 %56 to i64
  %58 = getelementptr inbounds ptr, ptr %55, i64 %57
  %59 = load ptr, ptr %58, align 8
  %60 = getelementptr inbounds nuw %struct.PermutationStep, ptr %59, i32 0, i32 0
  store ptr %54, ptr %60, align 8
  %61 = load ptr, ptr %11, align 8
  %62 = load ptr, ptr %8, align 8
  %63 = load i32, ptr %7, align 4
  %64 = sext i32 %63 to i64
  %65 = getelementptr inbounds ptr, ptr %62, i64 %64
  %66 = load ptr, ptr %65, align 8
  %67 = getelementptr inbounds nuw %struct.PermutationStep, ptr %66, i32 0, i32 3
  store ptr %61, ptr %67, align 8
  %68 = load ptr, ptr %6, align 8
  %69 = load i32, ptr %9, align 4
  %70 = sext i32 %69 to i64
  %71 = getelementptr inbounds i32, ptr %68, i64 %70
  %72 = load i32, ptr %71, align 4
  %73 = add i32 %72, 1
  store i32 %73, ptr %71, align 4
  %74 = load ptr, ptr %5, align 8
  %75 = load ptr, ptr %6, align 8
  %76 = load i32, ptr %7, align 4
  %77 = add i32 %76, 1
  %78 = load ptr, ptr %8, align 8
  call void @run_all_permutations_recurse(ptr noundef %74, ptr noundef %75, i32 noundef %77, ptr noundef %78)
  %79 = load ptr, ptr %6, align 8
  %80 = load i32, ptr %9, align 4
  %81 = sext i32 %80 to i64
  %82 = getelementptr inbounds i32, ptr %79, i64 %81
  %83 = load i32, ptr %82, align 4
  %84 = add i32 %83, -1
  store i32 %84, ptr %82, align 4
  store i8 1, ptr %10, align 1
  call void @llvm.lifetime.end.p0(i64 8, ptr %11) #11
  br label %85

85:                                               ; preds = %34, %18
  br label %86

86:                                               ; preds = %85
  %87 = load i32, ptr %9, align 4
  %88 = add i32 %87, 1
  store i32 %88, ptr %9, align 4
  br label %12, !llvm.loop !45

89:                                               ; preds = %12
  %90 = load i8, ptr %10, align 1, !range !18, !noundef !19
  %91 = trunc i8 %90 to i1
  br i1 %91, label %96, label %92

92:                                               ; preds = %89
  %93 = load ptr, ptr %5, align 8
  %94 = load i32, ptr %7, align 4
  %95 = load ptr, ptr %8, align 8
  call void @run_permutation(ptr noundef %93, i32 noundef %94, ptr noundef %95)
  br label %96

96:                                               ; preds = %92, %89
  call void @llvm.lifetime.end.p0(i64 1, ptr %10) #11
  call void @llvm.lifetime.end.p0(i64 4, ptr %9) #11
  ret void
}