; Function Attrs: nounwind uwtable
define internal fastcc void @run_all_permutations_recurse(ptr noundef captures(none) %0, i32 noundef %1, ptr noundef readonly captures(none) %2) unnamed_addr #0 {
  %4 = load i32, ptr getelementptr inbounds nuw (i8, ptr @parseresult, i64 32), align 8
  %5 = icmp sgt i32 %4, 0
  br i1 %5, label %.lr.ph, label %.critedge

.lr.ph:                                           ; preds = %3
  %6 = sext i32 %1 to i64
  %7 = getelementptr inbounds ptr, ptr %2, i64 %6
  %8 = add i32 %1, 1
  br label %.outer

.outer:                                           ; preds = %.thread, %.lr.ph
  %.ph = phi i32 [ %.pre4, %.thread ], [ %4, %.lr.ph ]
  %indvars.iv.ph = phi i64 [ %indvars.iv.next6, %.thread ], [ 0, %.lr.ph ]
  %.0281.ph = phi i1 [ true, %.thread ], [ false, %.lr.ph ]
  %.ph9 = load ptr, ptr getelementptr inbounds nuw (i8, ptr @parseresult, i64 24), align 8
  %9 = sext i32 %.ph to i64
  br label %10

10:                                               ; preds = %.outer, %18
  %indvars.iv = phi i64 [ %indvars.iv.next, %18 ], [ %indvars.iv.ph, %.outer ]
  %11 = getelementptr inbounds nuw i32, ptr %0, i64 %indvars.iv
  %12 = load i32, ptr %11, align 4
  %13 = getelementptr inbounds nuw ptr, ptr %.ph9, i64 %indvars.iv
  %14 = load ptr, ptr %13, align 8
  %15 = getelementptr inbounds nuw i8, ptr %14, i64 32
  %16 = load i32, ptr %15, align 8
  %17 = icmp slt i32 %12, %16
  br i1 %17, label %.thread, label %18

18:                                               ; preds = %10
  %indvars.iv.next = add nuw nsw i64 %indvars.iv, 1
  %19 = icmp slt i64 %indvars.iv.next, %9
  br i1 %19, label %10, label %._crit_edge, !llvm.loop !44

.thread:                                          ; preds = %10
  %20 = getelementptr inbounds nuw i32, ptr %0, i64 %indvars.iv
  %21 = getelementptr inbounds nuw i8, ptr %14, i64 24
  %22 = load ptr, ptr %21, align 8
  %23 = sext i32 %12 to i64
  %24 = getelementptr inbounds ptr, ptr %22, i64 %23
  %25 = load ptr, ptr %24, align 8
  %26 = load ptr, ptr %25, align 8
  %27 = load ptr, ptr %7, align 8
  store ptr %26, ptr %27, align 8
  %28 = load ptr, ptr %7, align 8
  %29 = getelementptr inbounds nuw i8, ptr %28, i64 24
  store ptr %25, ptr %29, align 8
  %30 = load i32, ptr %20, align 4
  %31 = add i32 %30, 1
  store i32 %31, ptr %20, align 4
  tail call fastcc void @run_all_permutations_recurse(ptr noundef nonnull %0, i32 noundef %8, ptr noundef %2)
  %32 = load i32, ptr %20, align 4
  %33 = add i32 %32, -1
  store i32 %33, ptr %20, align 4
  %.pre4 = load i32, ptr getelementptr inbounds nuw (i8, ptr @parseresult, i64 32), align 8
  %indvars.iv.next6 = add nuw nsw i64 %indvars.iv, 1
  %34 = sext i32 %.pre4 to i64
  %35 = icmp slt i64 %indvars.iv.next6, %34
  br i1 %35, label %.outer, label %._crit_edge.thread, !llvm.loop !44

._crit_edge:                                      ; preds = %18
  br i1 %.0281.ph, label %._crit_edge.thread, label %.critedge

.critedge:                                        ; preds = %3, %._crit_edge
  tail call fastcc void @run_permutation(i32 noundef %1, ptr noundef %2)
  br label %._crit_edge.thread

._crit_edge.thread:                               ; preds = %.thread, %.critedge, %._crit_edge
  ret void
}